target datalayout = "e-m:e-p270:32:32-p271:32:32-p272:64:64-i64:64-i128:128-f80:128-n8:16:32:64-S128"
target triple = "x86_64-pc-linux-gnu"

%"class.std::vector.0" = type { %"struct.std::_Vector_base.1" }
%"struct.std::_Vector_base.1" = type { %"struct.std::_Vector_base<Function *, std::allocator<Function *>>::_Vector_impl" }
%"struct.std::_Vector_base<Function *, std::allocator<Function *>>::_Vector_impl" = type { %"struct.std::_Vector_base<Function *, std::allocator<Function *>>::_Vector_impl_data" }
%"struct.std::_Vector_base<Function *, std::allocator<Function *>>::_Vector_impl_data" = type { ptr, ptr, ptr }
%"struct.std::_Rb_tree_header" = type { %"struct.std::_Rb_tree_node_base", i64 }
%"struct.std::_Rb_tree_node_base" = type { i32, ptr, ptr, ptr }
%class.Effect = type <{ %"class.std::vector.26", %"class.std::vector.26", %"class.std::vector.26", i8, i8, [6 x i8] }>
%"class.std::vector.26" = type { %"struct.std::_Vector_base.27" }
%"struct.std::_Vector_base.27" = type { %"struct.std::_Vector_base<const Variable *, std::allocator<const Variable *>>::_Vector_impl" }
%"struct.std::_Vector_base<const Variable *, std::allocator<const Variable *>>::_Vector_impl" = type { %"struct.std::_Vector_base<const Variable *, std::allocator<const Variable *>>::_Vector_impl_data" }
%"struct.std::_Vector_base<const Variable *, std::allocator<const Variable *>>::_Vector_impl_data" = type { ptr, ptr, ptr }
%"class.std::__cxx11::basic_string" = type { %"struct.std::__cxx11::basic_string<char>::_Alloc_hider", i64, %union.anon }
%"struct.std::__cxx11::basic_string<char>::_Alloc_hider" = type { ptr }
%union.anon = type { i64, [8 x i8] }
%class.Function = type { %"class.std::__cxx11::basic_string", %"class.std::vector.31", ptr, %class.Effect, %"class.std::vector.36", %"class.std::vector.36", ptr, ptr, ptr, %"class.std::vector.26", %"class.std::vector.26", i8, i8, i8, i8, i32, %class.Effect, i8, %"class.std::__cxx11::basic_string", i32, %"class.std::vector.26" }
%"class.std::vector.31" = type { %"struct.std::_Vector_base.32" }
%"struct.std::_Vector_base.32" = type { %"struct.std::_Vector_base<Variable *, std::allocator<Variable *>>::_Vector_impl" }
%"struct.std::_Vector_base<Variable *, std::allocator<Variable *>>::_Vector_impl" = type { %"struct.std::_Vector_base<Variable *, std::allocator<Variable *>>::_Vector_impl_data" }
%"struct.std::_Vector_base<Variable *, std::allocator<Variable *>>::_Vector_impl_data" = type { ptr, ptr, ptr }
%"class.std::vector.36" = type { %"struct.std::_Vector_base.37" }
%"struct.std::_Vector_base.37" = type { %"struct.std::_Vector_base<Block *, std::allocator<Block *>>::_Vector_impl" }
%"struct.std::_Vector_base<Block *, std::allocator<Block *>>::_Vector_impl" = type { %"struct.std::_Vector_base<Block *, std::allocator<Block *>>::_Vector_impl_data" }
%"struct.std::_Vector_base<Block *, std::allocator<Block *>>::_Vector_impl_data" = type { ptr, ptr, ptr }
%class.Block = type { %class.Statement, %"class.std::vector.50", %"class.std::vector.50", %"class.std::vector.31", %"class.std::map.55", i8, i8, i8, %"class.std::vector.63", i8, i32 }
%class.Statement = type { ptr, i32, i32, ptr, ptr }
%"class.std::vector.50" = type { %"struct.std::_Vector_base.51" }
%"struct.std::_Vector_base.51" = type { %"struct.std::_Vector_base<Statement *, std::allocator<Statement *>>::_Vector_impl" }
%"struct.std::_Vector_base<Statement *, std::allocator<Statement *>>::_Vector_impl" = type { %"struct.std::_Vector_base<Statement *, std::allocator<Statement *>>::_Vector_impl_data" }
%"struct.std::_Vector_base<Statement *, std::allocator<Statement *>>::_Vector_impl_data" = type { ptr, ptr, ptr }
%"class.std::map.55" = type { %"class.std::_Rb_tree.56" }
%"class.std::_Rb_tree.56" = type { %"struct.std::_Rb_tree<std::__cxx11::basic_string<char>, std::pair<const std::__cxx11::basic_string<char>, eSimpleType>, std::_Select1st<std::pair<const std::__cxx11::basic_string<char>, eSimpleType>>, std::less<std::__cxx11::basic_string<char>>>::_Rb_tree_impl" }
%"struct.std::_Rb_tree<std::__cxx11::basic_string<char>, std::pair<const std::__cxx11::basic_string<char>, eSimpleType>, std::_Select1st<std::pair<const std::__cxx11::basic_string<char>, eSimpleType>>, std::less<std::__cxx11::basic_string<char>>>::_Rb_tree_impl" = type { %"struct.std::_Rb_tree_key_compare.60", %"struct.std::_Rb_tree_header" }
%"struct.std::_Rb_tree_key_compare.60" = type { %"struct.std::less.61" }
%"struct.std::less.61" = type { i8 }
%"class.std::vector.63" = type { %"struct.std::_Vector_base.64" }
%"struct.std::_Vector_base.64" = type { %"struct.std::_Vector_base<const Statement *, std::allocator<const Statement *>>::_Vector_impl" }
%"struct.std::_Vector_base<const Statement *, std::allocator<const Statement *>>::_Vector_impl" = type { %"struct.std::_Vector_base<const Statement *, std::allocator<const Statement *>>::_Vector_impl_data" }
%"struct.std::_Vector_base<const Statement *, std::allocator<const Statement *>>::_Vector_impl_data" = type { ptr, ptr, ptr }

@_ZL8FuncList = internal global %"class.std::vector.0" zeroinitializer, align 8

; Function Attrs: mustprogress nounwind uwtable
define linkonce_odr dso_local noundef nonnull align 8 dereferenceable(8) ptr @_ZNKSt6vectorIP5BlockSaIS1_EEixEm(ptr noundef nonnull align 8 dereferenceable(24) %0, i64 noundef %1) #4 comdat align 2 {
  %3 = alloca ptr, align 8
  %4 = alloca i64, align 8
  store ptr %0, ptr %3, align 8
  store i64 %1, ptr %4, align 8
  %5 = load ptr, ptr %3, align 8
  %6 = getelementptr inbounds %"struct.std::_Vector_base.37", ptr %5, i32 0, i32 0
  %7 = getelementptr inbounds %"struct.std::_Vector_base<Block *, std::allocator<Block *>>::_Vector_impl_data", ptr %6, i32 0, i32 0
  %8 = load ptr, ptr %7, align 8
  %9 = load i64, ptr %4, align 8
  %10 = getelementptr inbounds ptr, ptr %8, i64 %9
  ret ptr %10
}

; Function Attrs: mustprogress nounwind uwtable
define linkonce_odr dso_local noundef i64 @_ZNKSt6vectorIP5BlockSaIS1_EE4sizeEv(ptr noundef nonnull align 8 dereferenceable(24) %0) #4 comdat align 2 {
  %2 = alloca ptr, align 8
  store ptr %0, ptr %2, align 8
  %3 = load ptr, ptr %2, align 8
  %4 = getelementptr inbounds %"struct.std::_Vector_base.37", ptr %3, i32 0, i32 0
  %5 = getelementptr inbounds %"struct.std::_Vector_base<Block *, std::allocator<Block *>>::_Vector_impl_data", ptr %4, i32 0, i32 1
  %6 = load ptr, ptr %5, align 8
  %7 = getelementptr inbounds %"struct.std::_Vector_base.37", ptr %3, i32 0, i32 0
  %8 = getelementptr inbounds %"struct.std::_Vector_base<Block *, std::allocator<Block *>>::_Vector_impl_data", ptr %7, i32 0, i32 0
  %9 = load ptr, ptr %8, align 8
  %10 = ptrtoint ptr %6 to i64
  %11 = ptrtoint ptr %9 to i64
  %12 = sub i64 %10, %11
  %13 = sdiv exact i64 %12, 8
  ret i64 %13
}

; Function Attrs: mustprogress nounwind uwtable
define linkonce_odr dso_local noundef nonnull align 8 dereferenceable(8) ptr @_ZNSt6vectorIP8FunctionSaIS1_EEixEm(ptr noundef nonnull align 8 dereferenceable(24) %0, i64 noundef %1) #4 comdat align 2 {
  %3 = alloca ptr, align 8
  %4 = alloca i64, align 8
  store ptr %0, ptr %3, align 8
  store i64 %1, ptr %4, align 8
  %5 = load ptr, ptr %3, align 8
  %6 = getelementptr inbounds %"struct.std::_Vector_base.1", ptr %5, i32 0, i32 0
  %7 = getelementptr inbounds %"struct.std::_Vector_base<Function *, std::allocator<Function *>>::_Vector_impl_data", ptr %6, i32 0, i32 0
  %8 = load ptr, ptr %7, align 8
  %9 = load i64, ptr %4, align 8
  %10 = getelementptr inbounds ptr, ptr %8, i64 %9
  ret ptr %10
}

; Function Attrs: mustprogress nounwind uwtable
define linkonce_odr dso_local noundef i64 @_ZNKSt6vectorIP8FunctionSaIS1_EE4sizeEv(ptr noundef nonnull align 8 dereferenceable(24) %0) #4 comdat align 2 {
  %2 = alloca ptr, align 8
  store ptr %0, ptr %2, align 8
  %3 = load ptr, ptr %2, align 8
  %4 = getelementptr inbounds %"struct.std::_Vector_base.1", ptr %3, i32 0, i32 0
  %5 = getelementptr inbounds %"struct.std::_Vector_base<Function *, std::allocator<Function *>>::_Vector_impl_data", ptr %4, i32 0, i32 1
  %6 = load ptr, ptr %5, align 8
  %7 = getelementptr inbounds %"struct.std::_Vector_base.1", ptr %3, i32 0, i32 0
  %8 = getelementptr inbounds %"struct.std::_Vector_base<Function *, std::allocator<Function *>>::_Vector_impl_data", ptr %7, i32 0, i32 0
  %9 = load ptr, ptr %8, align 8
  %10 = ptrtoint ptr %6 to i64
  %11 = ptrtoint ptr %9 to i64
  %12 = sub i64 %10, %11
  %13 = sdiv exact i64 %12, 8
  ret i64 %13
}

; Function Attrs: mustprogress uwtable
define dso_local noundef ptr @_Z16find_blk_for_varPK8Variable(ptr noundef %0) #5 {
  %2 = alloca ptr, align 8
  %3 = alloca ptr, align 8
  %4 = alloca i64, align 8
  %5 = alloca i64, align 8
  %6 = alloca ptr, align 8
  %7 = alloca ptr, align 8
  store ptr %0, ptr %3, align 8
  %8 = load ptr, ptr %3, align 8
  %9 = load ptr, ptr %8, align 8
  %10 = getelementptr inbounds ptr, ptr %9, i64 2
  %11 = load ptr, ptr %10, align 8
  %12 = call noundef zeroext i1 %11(ptr noundef nonnull align 8 dereferenceable(200) %8)
  br i1 %12, label %13, label %14

13:                                               ; preds = %1
  store ptr null, ptr %2, align 8
  br label %64

14:                                               ; preds = %1
  store i64 0, ptr %4, align 8
  br label %15

15:                                               ; preds = %60, %14
  %16 = load i64, ptr %4, align 8
  %17 = call noundef i64 @_ZNKSt6vectorIP8FunctionSaIS1_EE4sizeEv(ptr noundef nonnull align 8 dereferenceable(24) @_ZL8FuncList) #3
  %18 = icmp ult i64 %16, %17
  br i1 %18, label %19, label %63

19:                                               ; preds = %15
  %20 = load i64, ptr %4, align 8
  %21 = call noundef nonnull align 8 dereferenceable(8) ptr @_ZNSt6vectorIP8FunctionSaIS1_EEixEm(ptr noundef nonnull align 8 dereferenceable(24) @_ZL8FuncList, i64 noundef %20) #3
  %22 = load ptr, ptr %21, align 8
  store ptr %22, ptr %6, align 8
  %23 = load ptr, ptr %3, align 8
  %24 = call noundef zeroext i1 @_ZNK8Variable11is_argumentEv(ptr noundef nonnull align 8 dereferenceable(200) %23)
  br i1 %24, label %25, label %35

25:                                               ; preds = %19
  %26 = load ptr, ptr %6, align 8
  %27 = getelementptr inbounds %class.Function, ptr %26, i32 0, i32 1
  %28 = load ptr, ptr %3, align 8
  %29 = call noundef i32 @_Z20find_variable_in_setRKSt6vectorIP8VariableSaIS1_EEPKS0_(ptr noundef nonnull align 8 dereferenceable(24) %27, ptr noundef %28)
  %30 = icmp ne i32 %29, -1
  br i1 %30, label %31, label %35

31:                                               ; preds = %25
  %32 = load ptr, ptr %6, align 8
  %33 = getelementptr inbounds %class.Function, ptr %32, i32 0, i32 6
  %34 = load ptr, ptr %33, align 8
  store ptr %34, ptr %2, align 8
  br label %64

35:                                               ; preds = %25, %19
  store i64 0, ptr %5, align 8
  br label %36

36:                                               ; preds = %56, %35
  %37 = load i64, ptr %5, align 8
  %38 = load ptr, ptr %6, align 8
  %39 = getelementptr inbounds %class.Function, ptr %38, i32 0, i32 5
  %40 = call noundef i64 @_ZNKSt6vectorIP5BlockSaIS1_EE4sizeEv(ptr noundef nonnull align 8 dereferenceable(24) %39) #3
  %41 = icmp ult i64 %37, %40
  br i1 %41, label %42, label %59

42:                                               ; preds = %36
  %43 = load ptr, ptr %6, align 8
  %44 = getelementptr inbounds %class.Function, ptr %43, i32 0, i32 5
  %45 = load i64, ptr %5, align 8
  %46 = call noundef nonnull align 8 dereferenceable(8) ptr @_ZNKSt6vectorIP5BlockSaIS1_EEixEm(ptr noundef nonnull align 8 dereferenceable(24) %44, i64 noundef %45) #3
  %47 = load ptr, ptr %46, align 8
  store ptr %47, ptr %7, align 8
  %48 = load ptr, ptr %7, align 8
  %49 = getelementptr inbounds %class.Block, ptr %48, i32 0, i32 3
  %50 = load ptr, ptr %3, align 8
  %51 = call noundef i32 @_Z20find_variable_in_setRKSt6vectorIP8VariableSaIS1_EEPKS0_(ptr noundef nonnull align 8 dereferenceable(24) %49, ptr noundef %50)
  %52 = icmp ne i32 %51, -1
  br i1 %52, label %53, label %55

53:                                               ; preds = %42
  %54 = load ptr, ptr %7, align 8
  store ptr %54, ptr %2, align 8
  br label %64

55:                                               ; preds = %42
  br label %56

56:                                               ; preds = %55
  %57 = load i64, ptr %5, align 8
  %58 = add i64 %57, 1
  store i64 %58, ptr %5, align 8
  br label %36, !llvm.loop !10

59:                                               ; preds = %36
  br label %60

60:                                               ; preds = %59
  %61 = load i64, ptr %4, align 8
  %62 = add i64 %61, 1
  store i64 %62, ptr %4, align 8
  br label %15, !llvm.loop !11

63:                                               ; preds = %15
  store ptr null, ptr %2, align 8
  br label %64

64:                                               ; preds = %63, %53, %31, %13
  %65 = load ptr, ptr %2, align 8
  ret ptr %65
}