; Function Attrs: mustprogress uwtable
define dso_local noundef ptr @_Z16find_blk_for_varPK8Variable(ptr noundef %0) local_unnamed_addr #4 {
  %2 = load ptr, ptr %0, align 8
  %3 = getelementptr inbounds nuw i8, ptr %2, i64 16
  %4 = load ptr, ptr %3, align 8
  %5 = tail call noundef zeroext i1 %4(ptr noundef nonnull align 8 dereferenceable(200) %0)
  br i1 %5, label %.loopexit, label %.preheader

.preheader:                                       ; preds = %1
  %6 = load ptr, ptr getelementptr inbounds nuw (i8, ptr @_ZL8FuncList, i64 8), align 8
  %7 = load ptr, ptr @_ZL8FuncList, align 8
  %.not25 = icmp eq ptr %6, %7
  br i1 %.not25, label %.loopexit, label %.lr.ph24

.lr.ph24:                                         ; preds = %.preheader, %._crit_edge
  %8 = phi ptr [ %39, %._crit_edge ], [ %7, %.preheader ]
  %.01623 = phi i64 [ %37, %._crit_edge ], [ 0, %.preheader ]
  %9 = getelementptr inbounds ptr, ptr %8, i64 %.01623
  %10 = load ptr, ptr %9, align 8
  %11 = tail call noundef zeroext i1 @_ZNK8Variable11is_argumentEv(ptr noundef nonnull align 8 dereferenceable(200) %0)
  br i1 %11, label %12, label %18

12:                                               ; preds = %.lr.ph24
  %13 = getelementptr inbounds nuw i8, ptr %10, i64 32
  %14 = tail call noundef i32 @_Z20find_variable_in_setRKSt6vectorIP8VariableSaIS1_EEPKS0_(ptr noundef nonnull align 8 dereferenceable(24) %13, ptr noundef nonnull %0)
  %.not = icmp eq i32 %14, -1
  br i1 %.not, label %18, label %15

15:                                               ; preds = %12
  %16 = getelementptr inbounds nuw i8, ptr %10, i64 192
  %17 = load ptr, ptr %16, align 8
  br label %.loopexit

18:                                               ; preds = %12, %.lr.ph24
  %19 = getelementptr inbounds nuw i8, ptr %10, i64 168
  %20 = getelementptr inbounds nuw i8, ptr %10, i64 176
  %21 = load ptr, ptr %20, align 8
  %22 = load ptr, ptr %19, align 8
  %.not26 = icmp eq ptr %21, %22
  br i1 %.not26, label %._crit_edge, label %.lr.ph

23:                                               ; preds = %.lr.ph
  %24 = add nuw i64 %.01722, 1
  %25 = load ptr, ptr %20, align 8
  %26 = load ptr, ptr %19, align 8
  %27 = ptrtoint ptr %25 to i64
  %28 = ptrtoint ptr %26 to i64
  %29 = sub i64 %27, %28
  %30 = ashr exact i64 %29, 3
  %31 = icmp ult i64 %24, %30
  br i1 %31, label %.lr.ph, label %._crit_edge, !llvm.loop !12

.lr.ph:                                           ; preds = %18, %23
  %32 = phi ptr [ %26, %23 ], [ %22, %18 ]
  %.01722 = phi i64 [ %24, %23 ], [ 0, %18 ]
  %33 = getelementptr inbounds ptr, ptr %32, i64 %.01722
  %34 = load ptr, ptr %33, align 8
  %35 = getelementptr inbounds nuw i8, ptr %34, i64 80
  %36 = tail call noundef i32 @_Z20find_variable_in_setRKSt6vectorIP8VariableSaIS1_EEPKS0_(ptr noundef nonnull align 8 dereferenceable(24) %35, ptr noundef nonnull %0)
  %.not18 = icmp eq i32 %36, -1
  br i1 %.not18, label %23, label %.loopexit

._crit_edge:                                      ; preds = %23, %18
  %37 = add nuw i64 %.01623, 1
  %38 = load ptr, ptr getelementptr inbounds nuw (i8, ptr @_ZL8FuncList, i64 8), align 8
  %39 = load ptr, ptr @_ZL8FuncList, align 8
  %40 = ptrtoint ptr %38 to i64
  %41 = ptrtoint ptr %39 to i64
  %42 = sub i64 %40, %41
  %43 = ashr exact i64 %42, 3
  %44 = icmp ult i64 %37, %43
  br i1 %44, label %.lr.ph24, label %.loopexit, !llvm.loop !13

.loopexit:                                        ; preds = %._crit_edge, %.lr.ph, %.preheader, %1, %15
  %.0 = phi ptr [ %17, %15 ], [ null, %1 ], [ null, %.preheader ], [ %34, %.lr.ph ], [ null, %._crit_edge ]
  ret ptr %.0
}